target datalayout = "e-m:e-p270:32:32-p271:32:32-p272:64:64-i64:64-i128:128-f80:128-n8:16:32:64-S128"
target triple = "x86_64-unknown-linux-gnu"

%"class.spacer::sym_mux" = type { ptr, %class.obj_map, %class.obj_map.0 }
%class.obj_map = type { %class.core_hashtable }
%class.core_hashtable = type <{ ptr, i32, i32, i32, [4 x i8] }>
%class.obj_map.0 = type { %class.core_hashtable.1 }
%class.core_hashtable.1 = type <{ ptr, i32, i32, i32, [4 x i8] }>
%class.obj_ref = type { ptr, ptr }
%"struct.std::pair" = type <{ ptr, i32, [4 x i8] }>
%"class.spacer::sym_mux::sym_mux_entry" = type { %class.obj_ref, %class.ref_vector }
%class.ref_vector = type { %class.ref_vector_core }
%class.ref_vector_core = type { %class.ref_manager_wrapper, %class.ptr_vector.36 }
%class.ref_manager_wrapper = type { ptr }
%class.ptr_vector.36 = type { %class.vector.37 }
%class.vector.37 = type { ptr }
%"struct.obj_map<func_decl, std::pair<spacer::sym_mux::sym_mux_entry *, unsigned int>>::key_data" = type { ptr, %"struct.std::pair" }

; Function Attrs: mustprogress nounwind uwtable
define linkonce_odr hidden noundef nonnull align 8 dereferenceable(8) ptr @_ZNK6vectorIP9func_declLb0EjEixEj(ptr noundef nonnull align 8 dereferenceable(8) %this, i32 noundef %idx) #5 comdat align 2 {
entry:
  %this.addr = alloca ptr, align 8
  %idx.addr = alloca i32, align 4
  store ptr %this, ptr %this.addr, align 8
  store i32 %idx, ptr %idx.addr, align 4
  %this1 = load ptr, ptr %this.addr, align 8
  %m_data = getelementptr inbounds %class.vector.37, ptr %this1, i32 0, i32 0
  %0 = load ptr, ptr %m_data, align 8
  %1 = load i32, ptr %idx.addr, align 4
  %idxprom = zext i32 %1 to i64
  %arrayidx = getelementptr inbounds ptr, ptr %0, i64 %idxprom
  ret ptr %arrayidx
}

; Function Attrs: mustprogress nounwind uwtable
define linkonce_odr hidden void @_ZN7obj_mapI9func_declSt4pairIPN6spacer7sym_mux13sym_mux_entryEjEE8key_dataC2EPS0_OS6_(ptr noundef nonnull align 8 dereferenceable(24) %this, ptr noundef %k, ptr noundef nonnull align 8 dereferenceable(12) %v) unnamed_addr #5 comdat align 2 {
entry:
  %this.addr = alloca ptr, align 8
  %k.addr = alloca ptr, align 8
  %v.addr = alloca ptr, align 8
  store ptr %this, ptr %this.addr, align 8
  store ptr %k, ptr %k.addr, align 8
  store ptr %v, ptr %v.addr, align 8
  %this1 = load ptr, ptr %this.addr, align 8
  %m_key = getelementptr inbounds %"struct.obj_map<func_decl, std::pair<spacer::sym_mux::sym_mux_entry *, unsigned int>>::key_data", ptr %this1, i32 0, i32 0
  %0 = load ptr, ptr %k.addr, align 8
  store ptr %0, ptr %m_key, align 8
  %m_value = getelementptr inbounds %"struct.obj_map<func_decl, std::pair<spacer::sym_mux::sym_mux_entry *, unsigned int>>::key_data", ptr %this1, i32 0, i32 1
  %1 = load ptr, ptr %v.addr, align 8
  call void @llvm.memcpy.p0.p0.i64(ptr align 8 %m_value, ptr align 8 %1, i64 16, i1 false)
  ret void
}

; Function Attrs: mustprogress nounwind uwtable
define linkonce_odr hidden void @_ZNSt4pairIPN6spacer7sym_mux13sym_mux_entryEjEC2IS3_RjTnNSt9enable_ifIXaaclsr5_PCCPE22_MoveConstructiblePairIT_T0_EEclsr5_PCCPE30_ImplicitlyMoveConvertiblePairIS8_S9_EEEbE4typeELb1EEEOS8_OS9_(ptr noundef nonnull align 8 dereferenceable(12) %this, ptr noundef nonnull align 8 dereferenceable(8) %__x, ptr noundef nonnull align 4 dereferenceable(4) %__y) unnamed_addr #5 comdat align 2 {
entry:
  %this.addr = alloca ptr, align 8
  %__x.addr = alloca ptr, align 8
  %__y.addr = alloca ptr, align 8
  store ptr %this, ptr %this.addr, align 8
  store ptr %__x, ptr %__x.addr, align 8
  store ptr %__y, ptr %__y.addr, align 8
  %this1 = load ptr, ptr %this.addr, align 8
  %first = getelementptr inbounds %"struct.std::pair", ptr %this1, i32 0, i32 0
  %0 = load ptr, ptr %__x.addr, align 8
  %1 = load ptr, ptr %0, align 8
  store ptr %1, ptr %first, align 8
  %second = getelementptr inbounds %"struct.std::pair", ptr %this1, i32 0, i32 1
  %2 = load ptr, ptr %__y.addr, align 8
  %3 = load i32, ptr %2, align 4
  store i32 %3, ptr %second, align 8
  ret void
}

; Function Attrs: mustprogress nounwind uwtable
define linkonce_odr hidden noundef nonnull align 8 dereferenceable(8) ptr @_ZNK6vectorIP9func_declLb0EjE4backEv(ptr noundef nonnull align 8 dereferenceable(8) %this) #5 comdat align 2 {
entry:
  %this.addr = alloca ptr, align 8
  store ptr %this, ptr %this.addr, align 8
  %this1 = load ptr, ptr %this.addr, align 8
  %call = call noundef i32 @_ZNK6vectorIP9func_declLb0EjE4sizeEv(ptr noundef nonnull align 8 dereferenceable(8) %this1)
  %sub = sub i32 %call, 1
  %call2 = call noundef nonnull align 8 dereferenceable(8) ptr @_ZNK6vectorIP9func_declLb0EjEixEj(ptr noundef nonnull align 8 dereferenceable(8) %this1, i32 noundef %sub)
  ret ptr %call2
}

; Function Attrs: mustprogress nounwind uwtable
define linkonce_odr hidden noundef ptr @_ZN7obj_refI9func_decl11ast_managerE5stealEv(ptr noundef nonnull align 8 dereferenceable(16) %this) #5 comdat align 2 {
entry:
  %this.addr = alloca ptr, align 8
  %r = alloca ptr, align 8
  store ptr %this, ptr %this.addr, align 8
  %this1 = load ptr, ptr %this.addr, align 8
  %m_obj = getelementptr inbounds %class.obj_ref, ptr %this1, i32 0, i32 0
  %0 = load ptr, ptr %m_obj, align 8
  store ptr %0, ptr %r, align 8
  %m_obj2 = getelementptr inbounds %class.obj_ref, ptr %this1, i32 0, i32 0
  store ptr null, ptr %m_obj2, align 8
  %1 = load ptr, ptr %r, align 8
  ret ptr %1
}

; Function Attrs: mustprogress uwtable
define linkonce_odr hidden noundef nonnull align 8 dereferenceable(8) ptr @_ZN6vectorIP9func_declLb0EjE9push_backEOS1_(ptr noundef nonnull align 8 dereferenceable(8) %this, ptr noundef nonnull align 8 dereferenceable(8) %elem) #4 comdat align 2 {
entry:
  %this.addr = alloca ptr, align 8
  %elem.addr = alloca ptr, align 8
  store ptr %this, ptr %this.addr, align 8
  store ptr %elem, ptr %elem.addr, align 8
  %this1 = load ptr, ptr %this.addr, align 8
  %m_data = getelementptr inbounds %class.vector.37, ptr %this1, i32 0, i32 0
  %0 = load ptr, ptr %m_data, align 8
  %cmp = icmp eq ptr %0, null
  br i1 %cmp, label %if.then, label %lor.lhs.false

lor.lhs.false:                                    ; preds = %entry
  %m_data2 = getelementptr inbounds %class.vector.37, ptr %this1, i32 0, i32 0
  %1 = load ptr, ptr %m_data2, align 8
  %arrayidx = getelementptr inbounds i32, ptr %1, i64 -1
  %2 = load i32, ptr %arrayidx, align 4
  %m_data3 = getelementptr inbounds %class.vector.37, ptr %this1, i32 0, i32 0
  %3 = load ptr, ptr %m_data3, align 8
  %arrayidx4 = getelementptr inbounds i32, ptr %3, i64 -2
  %4 = load i32, ptr %arrayidx4, align 4
  %cmp5 = icmp eq i32 %2, %4
  br i1 %cmp5, label %if.then, label %if.end

if.then:                                          ; preds = %lor.lhs.false, %entry
  call void @_ZN6vectorIP9func_declLb0EjE13expand_vectorEv(ptr noundef nonnull align 8 dereferenceable(8) %this1)
  br label %if.end

if.end:                                           ; preds = %if.then, %lor.lhs.false
  %m_data6 = getelementptr inbounds %class.vector.37, ptr %this1, i32 0, i32 0
  %5 = load ptr, ptr %m_data6, align 8
  %m_data7 = getelementptr inbounds %class.vector.37, ptr %this1, i32 0, i32 0
  %6 = load ptr, ptr %m_data7, align 8
  %arrayidx8 = getelementptr inbounds i32, ptr %6, i64 -1
  %7 = load i32, ptr %arrayidx8, align 4
  %idx.ext = zext i32 %7 to i64
  %add.ptr = getelementptr inbounds ptr, ptr %5, i64 %idx.ext
  %8 = load ptr, ptr %elem.addr, align 8
  %9 = load ptr, ptr %8, align 8
  store ptr %9, ptr %add.ptr, align 8
  %m_data9 = getelementptr inbounds %class.vector.37, ptr %this1, i32 0, i32 0
  %10 = load ptr, ptr %m_data9, align 8
  %arrayidx10 = getelementptr inbounds i32, ptr %10, i64 -1
  %11 = load i32, ptr %arrayidx10, align 4
  %inc = add i32 %11, 1
  store i32 %inc, ptr %arrayidx10, align 4
  ret ptr %this1
}

; Function Attrs: mustprogress nounwind uwtable
define linkonce_odr hidden noundef ptr @_ZNK7obj_refI9func_decl11ast_managerE3getEv(ptr noundef nonnull align 8 dereferenceable(16) %this) #5 comdat align 2 {
entry:
  %this.addr = alloca ptr, align 8
  store ptr %this, ptr %this.addr, align 8
  %this1 = load ptr, ptr %this.addr, align 8
  %m_obj = getelementptr inbounds %class.obj_ref, ptr %this1, i32 0, i32 0
  %0 = load ptr, ptr %m_obj, align 8
  ret ptr %0
}

; Function Attrs: mustprogress nounwind uwtable
define linkonce_odr hidden noundef i32 @_ZNK6vectorIP9func_declLb0EjE4sizeEv(ptr noundef nonnull align 8 dereferenceable(8) %this) #5 comdat align 2 {
entry:
  %retval = alloca i32, align 4
  %this.addr = alloca ptr, align 8
  store ptr %this, ptr %this.addr, align 8
  %this1 = load ptr, ptr %this.addr, align 8
  %m_data = getelementptr inbounds %class.vector.37, ptr %this1, i32 0, i32 0
  %0 = load ptr, ptr %m_data, align 8
  %cmp = icmp eq ptr %0, null
  br i1 %cmp, label %if.then, label %if.end

if.then:                                          ; preds = %entry
  store i32 0, ptr %retval, align 4
  br label %return

if.end:                                           ; preds = %entry
  %m_data2 = getelementptr inbounds %class.vector.37, ptr %this1, i32 0, i32 0
  %1 = load ptr, ptr %m_data2, align 8
  %arrayidx = getelementptr inbounds i32, ptr %1, i64 -1
  %2 = load i32, ptr %arrayidx, align 4
  store i32 %2, ptr %retval, align 4
  br label %return

return:                                           ; preds = %if.end, %if.then
  %3 = load i32, ptr %retval, align 4
  ret i32 %3
}

; Function Attrs: mustprogress uwtable
define linkonce_odr hidden void @_ZN7obj_mapI9func_declSt4pairIPN6spacer7sym_mux13sym_mux_entryEjEE6insertEPS0_OS6_(ptr noundef nonnull align 8 dereferenceable(24) %this, ptr noundef %k, ptr noundef nonnull align 8 dereferenceable(12) %v) #4 comdat align 2 {
entry:
  %this.addr = alloca ptr, align 8
  %k.addr = alloca ptr, align 8
  %v.addr = alloca ptr, align 8
  %ref.tmp = alloca %"struct.obj_map<func_decl, std::pair<spacer::sym_mux::sym_mux_entry *, unsigned int>>::key_data", align 8
  store ptr %this, ptr %this.addr, align 8
  store ptr %k, ptr %k.addr, align 8
  store ptr %v, ptr %v.addr, align 8
  %this1 = load ptr, ptr %this.addr, align 8
  %m_table = getelementptr inbounds %class.obj_map.0, ptr %this1, i32 0, i32 0
  %0 = load ptr, ptr %k.addr, align 8
  %1 = load ptr, ptr %v.addr, align 8
  call void @_ZN7obj_mapI9func_declSt4pairIPN6spacer7sym_mux13sym_mux_entryEjEE8key_dataC2EPS0_OS6_(ptr noundef nonnull align 8 dereferenceable(24) %ref.tmp, ptr noundef %0, ptr noundef nonnull align 8 dereferenceable(12) %1)
  call void @_ZN14core_hashtableIN7obj_mapI9func_declSt4pairIPN6spacer7sym_mux13sym_mux_entryEjEE13obj_map_entryE8obj_hashINS8_8key_dataEE10default_eqISB_EE6insertEOSB_(ptr noundef nonnull align 8 dereferenceable(20) %m_table, ptr noundef nonnull align 8 dereferenceable(24) %ref.tmp)
  ret void
}

; Function Attrs: mustprogress uwtable
define linkonce_odr hidden { ptr, i32 } @_ZSt9make_pairIPN6spacer7sym_mux13sym_mux_entryERjESt4pairINSt25__strip_reference_wrapperINSt5decayIT_E4typeEE6__typeENS6_INS7_IT0_E4typeEE6__typeEEOS8_OSD_(ptr noundef nonnull align 8 dereferenceable(8) %__x, ptr noundef nonnull align 4 dereferenceable(4) %__y) #4 comdat {
entry:
  %retval = alloca %"struct.std::pair", align 8
  %__x.addr = alloca ptr, align 8
  %__y.addr = alloca ptr, align 8
  store ptr %__x, ptr %__x.addr, align 8
  store ptr %__y, ptr %__y.addr, align 8
  %0 = load ptr, ptr %__x.addr, align 8
  %1 = load ptr, ptr %__y.addr, align 8
  call void @_ZNSt4pairIPN6spacer7sym_mux13sym_mux_entryEjEC2IS3_RjTnNSt9enable_ifIXaaclsr5_PCCPE22_MoveConstructiblePairIT_T0_EEclsr5_PCCPE30_ImplicitlyMoveConvertiblePairIS8_S9_EEEbE4typeELb1EEEOS8_OS9_(ptr noundef nonnull align 8 dereferenceable(12) %retval, ptr noundef nonnull align 8 dereferenceable(8) %0, ptr noundef nonnull align 4 dereferenceable(4) %1)
  %2 = load { ptr, i32 }, ptr %retval, align 8
  ret { ptr, i32 } %2
}

; Function Attrs: mustprogress uwtable
define linkonce_odr hidden noundef ptr @_ZNK15ref_vector_coreI9func_decl19ref_manager_wrapperIS0_11ast_managerEE4backEv(ptr noundef nonnull align 8 dereferenceable(16) %this) #4 comdat align 2 {
entry:
  %this.addr = alloca ptr, align 8
  store ptr %this, ptr %this.addr, align 8
  %this1 = load ptr, ptr %this.addr, align 8
  %m_nodes = getelementptr inbounds %class.ref_vector_core, ptr %this1, i32 0, i32 1
  %call = call noundef nonnull align 8 dereferenceable(8) ptr @_ZNK6vectorIP9func_declLb0EjE4backEv(ptr noundef nonnull align 8 dereferenceable(8) %m_nodes)
  %0 = load ptr, ptr %call, align 8
  ret ptr %0
}

; Function Attrs: mustprogress uwtable
define linkonce_odr hidden noundef nonnull align 8 dereferenceable(16) ptr @_ZN15ref_vector_coreI9func_decl19ref_manager_wrapperIS0_11ast_managerEE9push_backIS2_EERS4_O7obj_refIS0_T_E(ptr noundef nonnull align 8 dereferenceable(16) %this, ptr noundef nonnull align 8 dereferenceable(16) %n) #4 comdat align 2 {
entry:
  %this.addr = alloca ptr, align 8
  %n.addr = alloca ptr, align 8
  %ref.tmp = alloca ptr, align 8
  store ptr %this, ptr %this.addr, align 8
  store ptr %n, ptr %n.addr, align 8
  %this1 = load ptr, ptr %this.addr, align 8
  %m_nodes = getelementptr inbounds %class.ref_vector_core, ptr %this1, i32 0, i32 1
  %0 = load ptr, ptr %n.addr, align 8
  %call = call noundef ptr @_ZNK7obj_refI9func_decl11ast_managerE3getEv(ptr noundef nonnull align 8 dereferenceable(16) %0)
  store ptr %call, ptr %ref.tmp, align 8
  %call2 = call noundef nonnull align 8 dereferenceable(8) ptr @_ZN6vectorIP9func_declLb0EjE9push_backEOS1_(ptr noundef nonnull align 8 dereferenceable(8) %m_nodes, ptr noundef nonnull align 8 dereferenceable(8) %ref.tmp)
  %1 = load ptr, ptr %n.addr, align 8
  %call3 = call noundef ptr @_ZN7obj_refI9func_decl11ast_managerE5stealEv(ptr noundef nonnull align 8 dereferenceable(16) %1)
  ret ptr %this1
}

; Function Attrs: mustprogress nounwind uwtable
define linkonce_odr hidden noundef ptr @_ZNK7obj_refI9func_decl11ast_managerEcvPS0_Ev(ptr noundef nonnull align 8 dereferenceable(16) %this) #5 comdat align 2 {
entry:
  %this.addr = alloca ptr, align 8
  store ptr %this, ptr %this.addr, align 8
  %this1 = load ptr, ptr %this.addr, align 8
  %m_obj = getelementptr inbounds %class.obj_ref, ptr %this1, i32 0, i32 0
  %0 = load ptr, ptr %m_obj, align 8
  ret ptr %0
}

; Function Attrs: mustprogress nounwind uwtable
define linkonce_odr hidden noundef i32 @_ZNK15ref_vector_coreI9func_decl19ref_manager_wrapperIS0_11ast_managerEE4sizeEv(ptr noundef nonnull align 8 dereferenceable(16) %this) #5 comdat align 2 {
entry:
  %this.addr = alloca ptr, align 8
  store ptr %this, ptr %this.addr, align 8
  %this1 = load ptr, ptr %this.addr, align 8
  %m_nodes = getelementptr inbounds %class.ref_vector_core, ptr %this1, i32 0, i32 1
  %call = call noundef i32 @_ZNK6vectorIP9func_declLb0EjE4sizeEv(ptr noundef nonnull align 8 dereferenceable(8) %m_nodes)
  ret i32 %call
}

; Function Attrs: mustprogress uwtable
define hidden void @_ZNK6spacer7sym_mux15ensure_capacityERNS0_13sym_mux_entryEj(ptr noundef nonnull align 8 dereferenceable(56) %this, ptr noundef nonnull align 8 dereferenceable(32) %entry1, i32 noundef %sz) #4 align 2 personality ptr @__gxx_personality_v0 {
entry:
  %this.addr = alloca ptr, align 8
  %entry.addr = alloca ptr, align 8
  %sz.addr = alloca i32, align 4
  %idx = alloca i32, align 4
  %ref.tmp = alloca %class.obj_ref, align 8
  %exn.slot = alloca ptr, align 8
  %ehselector.slot = alloca i32, align 4
  %ref.tmp10 = alloca %"struct.std::pair", align 8
  %ref.tmp11 = alloca ptr, align 8
  store ptr %this, ptr %this.addr, align 8
  store ptr %entry1, ptr %entry.addr, align 8
  store i32 %sz, ptr %sz.addr, align 4
  %this2 = load ptr, ptr %this.addr, align 8
  br label %while.cond

while.cond:                                       ; preds = %invoke.cont, %entry
  %0 = load ptr, ptr %entry.addr, align 8
  %m_variants = getelementptr inbounds %"class.spacer::sym_mux::sym_mux_entry", ptr %0, i32 0, i32 1
  %call = call noundef i32 @_ZNK15ref_vector_coreI9func_decl19ref_manager_wrapperIS0_11ast_managerEE4sizeEv(ptr noundef nonnull align 8 dereferenceable(16) %m_variants)
  %1 = load i32, ptr %sz.addr, align 4
  %cmp = icmp ult i32 %call, %1
  br i1 %cmp, label %while.body, label %while.end

while.body:                                       ; preds = %while.cond
  %2 = load ptr, ptr %entry.addr, align 8
  %m_variants3 = getelementptr inbounds %"class.spacer::sym_mux::sym_mux_entry", ptr %2, i32 0, i32 1
  %call4 = call noundef i32 @_ZNK15ref_vector_coreI9func_decl19ref_manager_wrapperIS0_11ast_managerEE4sizeEv(ptr noundef nonnull align 8 dereferenceable(16) %m_variants3)
  store i32 %call4, ptr %idx, align 4
  %3 = load ptr, ptr %entry.addr, align 8
  %m_variants5 = getelementptr inbounds %"class.spacer::sym_mux::sym_mux_entry", ptr %3, i32 0, i32 1
  %4 = load ptr, ptr %entry.addr, align 8
  %m_main = getelementptr inbounds %"class.spacer::sym_mux::sym_mux_entry", ptr %4, i32 0, i32 0
  %call6 = call noundef ptr @_ZNK7obj_refI9func_decl11ast_managerEcvPS0_Ev(ptr noundef nonnull align 8 dereferenceable(16) %m_main)
  %5 = load i32, ptr %idx, align 4
  call void @_ZNK6spacer7sym_mux10mk_variantEP9func_declj(ptr sret(%class.obj_ref) align 8 %ref.tmp, ptr noundef nonnull align 8 dereferenceable(56) %this2, ptr noundef %call6, i32 noundef %5)
  %call7 = invoke noundef nonnull align 8 dereferenceable(16) ptr @_ZN15ref_vector_coreI9func_decl19ref_manager_wrapperIS0_11ast_managerEE9push_backIS2_EERS4_O7obj_refIS0_T_E(ptr noundef nonnull align 8 dereferenceable(16) %m_variants5, ptr noundef nonnull align 8 dereferenceable(16) %ref.tmp)
          to label %invoke.cont unwind label %lpad

invoke.cont:                                      ; preds = %while.body
  call void @_ZN7obj_refI9func_decl11ast_managerED2Ev(ptr noundef nonnull align 8 dereferenceable(16) %ref.tmp) #3
  %m_muxes = getelementptr inbounds %"class.spacer::sym_mux", ptr %this2, i32 0, i32 2
  %6 = load ptr, ptr %entry.addr, align 8
  %m_variants8 = getelementptr inbounds %"class.spacer::sym_mux::sym_mux_entry", ptr %6, i32 0, i32 1
  %call9 = call noundef ptr @_ZNK15ref_vector_coreI9func_decl19ref_manager_wrapperIS0_11ast_managerEE4backEv(ptr noundef nonnull align 8 dereferenceable(16) %m_variants8)
  %7 = load ptr, ptr %entry.addr, align 8
  store ptr %7, ptr %ref.tmp11, align 8
  %call12 = call { ptr, i32 } @_ZSt9make_pairIPN6spacer7sym_mux13sym_mux_entryERjESt4pairINSt25__strip_reference_wrapperINSt5decayIT_E4typeEE6__typeENS6_INS7_IT0_E4typeEE6__typeEEOS8_OSD_(ptr noundef nonnull align 8 dereferenceable(8) %ref.tmp11, ptr noundef nonnull align 4 dereferenceable(4) %idx)
  %8 = getelementptr inbounds { ptr, i32 }, ptr %ref.tmp10, i32 0, i32 0
  %9 = extractvalue { ptr, i32 } %call12, 0
  store ptr %9, ptr %8, align 8
  %10 = getelementptr inbounds { ptr, i32 }, ptr %ref.tmp10, i32 0, i32 1
  %11 = extractvalue { ptr, i32 } %call12, 1
  store i32 %11, ptr %10, align 8
  call void @_ZN7obj_mapI9func_declSt4pairIPN6spacer7sym_mux13sym_mux_entryEjEE6insertEPS0_OS6_(ptr noundef nonnull align 8 dereferenceable(24) %m_muxes, ptr noundef %call9, ptr noundef nonnull align 8 dereferenceable(12) %ref.tmp10)
  br label %while.cond, !llvm.loop !4

lpad:                                             ; preds = %while.body
  %12 = landingpad { ptr, i32 }
          cleanup
  %13 = extractvalue { ptr, i32 } %12, 0
  store ptr %13, ptr %exn.slot, align 8
  %14 = extractvalue { ptr, i32 } %12, 1
  store i32 %14, ptr %ehselector.slot, align 4
  call void @_ZN7obj_refI9func_decl11ast_managerED2Ev(ptr noundef nonnull align 8 dereferenceable(16) %ref.tmp) #3
  br label %eh.resume

while.end:                                        ; preds = %while.cond
  ret void

eh.resume:                                        ; preds = %lpad
  %exn = load ptr, ptr %exn.slot, align 8
  %sel = load i32, ptr %ehselector.slot, align 4
  %lpad.val = insertvalue { ptr, i32 } poison, ptr %exn, 0
  %lpad.val13 = insertvalue { ptr, i32 } %lpad.val, i32 %sel, 1
  resume { ptr, i32 } %lpad.val13
}