; Function Attrs: mustprogress uwtable
define hidden void @_ZNK6spacer7sym_mux15ensure_capacityERNS0_13sym_mux_entryEj(ptr noundef nonnull align 8 dereferenceable(56) %this, ptr noundef nonnull align 8 dereferenceable(32) %entry1, i32 noundef %sz) local_unnamed_addr #3 align 2 personality ptr @__gxx_personality_v0 {
entry:
  %ref.tmp.i = alloca %"struct.obj_map<func_decl, std::pair<spacer::sym_mux::sym_mux_entry *, unsigned int>>::key_data", align 8
  %ref.tmp = alloca %class.obj_ref, align 8
  %m_nodes.i = getelementptr inbounds i8, ptr %entry1, i64 24
  %cmp.not = icmp eq i32 %sz, 0
  %m_muxes = getelementptr inbounds i8, ptr %this, i64 32
  %m_value.i.i = getelementptr inbounds i8, ptr %ref.tmp.i, i64 8
  %ref.tmp10.sroa.2.0.m_value.i.i.sroa_idx = getelementptr inbounds i8, ptr %ref.tmp.i, i64 16
  br i1 %cmp.not, label %while.end, label %while.cond

while.cond:                                       ; preds = %entry, %_ZNK15ref_vector_coreI9func_decl19ref_manager_wrapperIS0_11ast_managerEE4backEv.exit
  %0 = load ptr, ptr %m_nodes.i, align 8
  %cmp.i.i = icmp eq ptr %0, null
  br i1 %cmp.i.i, label %_ZNK15ref_vector_coreI9func_decl19ref_manager_wrapperIS0_11ast_managerEE4sizeEv.exit11, label %_ZNK15ref_vector_coreI9func_decl19ref_manager_wrapperIS0_11ast_managerEE4sizeEv.exit.thread

_ZNK15ref_vector_coreI9func_decl19ref_manager_wrapperIS0_11ast_managerEE4sizeEv.exit.thread: ; preds = %while.cond
  %arrayidx.i.i = getelementptr inbounds i8, ptr %0, i64 -4
  %1 = load i32, ptr %arrayidx.i.i, align 4
  %cmp19 = icmp ult i32 %1, %sz
  br i1 %cmp19, label %_ZNK15ref_vector_coreI9func_decl19ref_manager_wrapperIS0_11ast_managerEE4sizeEv.exit11, label %while.end

_ZNK15ref_vector_coreI9func_decl19ref_manager_wrapperIS0_11ast_managerEE4sizeEv.exit11: ; preds = %_ZNK15ref_vector_coreI9func_decl19ref_manager_wrapperIS0_11ast_managerEE4sizeEv.exit.thread, %while.cond
  %retval.0.i.i10 = phi i32 [ 0, %while.cond ], [ %1, %_ZNK15ref_vector_coreI9func_decl19ref_manager_wrapperIS0_11ast_managerEE4sizeEv.exit.thread ]
  %2 = load ptr, ptr %entry1, align 8
  call void @_ZNK6spacer7sym_mux10mk_variantEP9func_declj(ptr nonnull sret(%class.obj_ref) align 8 %ref.tmp, ptr noundef nonnull align 8 dereferenceable(56) %this, ptr noundef %2, i32 noundef %retval.0.i.i10)
  %3 = load ptr, ptr %ref.tmp, align 8
  %4 = load ptr, ptr %m_nodes.i, align 8
  %cmp.i.i13 = icmp eq ptr %4, null
  br i1 %cmp.i.i13, label %if.then.i.i, label %lor.lhs.false.i.i

lor.lhs.false.i.i:                                ; preds = %_ZNK15ref_vector_coreI9func_decl19ref_manager_wrapperIS0_11ast_managerEE4sizeEv.exit11
  %arrayidx.i.i14 = getelementptr inbounds i8, ptr %4, i64 -4
  %5 = load i32, ptr %arrayidx.i.i14, align 4
  %arrayidx4.i.i = getelementptr inbounds i8, ptr %4, i64 -8
  %6 = load i32, ptr %arrayidx4.i.i, align 4
  %cmp5.i.i = icmp eq i32 %5, %6
  br i1 %cmp5.i.i, label %if.then.i.i, label %_ZN7obj_refI9func_decl11ast_managerED2Ev.exit

if.then.i.i:                                      ; preds = %lor.lhs.false.i.i, %_ZNK15ref_vector_coreI9func_decl19ref_manager_wrapperIS0_11ast_managerEE4sizeEv.exit11
  invoke void @_ZN6vectorIP9func_declLb0EjE13expand_vectorEv(ptr noundef nonnull align 8 dereferenceable(8) %m_nodes.i)
          to label %.noexc unwind label %lpad

.noexc:                                           ; preds = %if.then.i.i
  %.pre.i.i = load ptr, ptr %m_nodes.i, align 8
  %arrayidx8.phi.trans.insert.i.i = getelementptr inbounds i8, ptr %.pre.i.i, i64 -4
  %.pre1.i.i = load i32, ptr %arrayidx8.phi.trans.insert.i.i, align 4
  br label %_ZN7obj_refI9func_decl11ast_managerED2Ev.exit

_ZN7obj_refI9func_decl11ast_managerED2Ev.exit:    ; preds = %lor.lhs.false.i.i, %.noexc
  %7 = phi i32 [ %.pre1.i.i, %.noexc ], [ %5, %lor.lhs.false.i.i ]
  %8 = phi ptr [ %.pre.i.i, %.noexc ], [ %4, %lor.lhs.false.i.i ]
  %idx.ext.i.i = zext i32 %7 to i64
  %add.ptr.i.i = getelementptr inbounds ptr, ptr %8, i64 %idx.ext.i.i
  store ptr %3, ptr %add.ptr.i.i, align 8
  %9 = load ptr, ptr %m_nodes.i, align 8
  %arrayidx10.i.i = getelementptr inbounds i8, ptr %9, i64 -4
  %10 = load i32, ptr %arrayidx10.i.i, align 4
  %inc.i.i = add i32 %10, 1
  store i32 %inc.i.i, ptr %arrayidx10.i.i, align 4
  store ptr null, ptr %ref.tmp, align 8
  %11 = load ptr, ptr %m_nodes.i, align 8
  %cmp.i.i.i16 = icmp eq ptr %11, null
  br i1 %cmp.i.i.i16, label %_ZNK15ref_vector_coreI9func_decl19ref_manager_wrapperIS0_11ast_managerEE4backEv.exit, label %if.end.i.i.i

if.end.i.i.i:                                     ; preds = %_ZN7obj_refI9func_decl11ast_managerED2Ev.exit
  %arrayidx.i.i.i = getelementptr inbounds i8, ptr %11, i64 -4
  %12 = load i32, ptr %arrayidx.i.i.i, align 4
  %13 = add i32 %12, -1
  %14 = zext i32 %13 to i64
  br label %_ZNK15ref_vector_coreI9func_decl19ref_manager_wrapperIS0_11ast_managerEE4backEv.exit

_ZNK15ref_vector_coreI9func_decl19ref_manager_wrapperIS0_11ast_managerEE4backEv.exit: ; preds = %_ZN7obj_refI9func_decl11ast_managerED2Ev.exit, %if.end.i.i.i
  %retval.0.i.i.i = phi i64 [ %14, %if.end.i.i.i ], [ 4294967295, %_ZN7obj_refI9func_decl11ast_managerED2Ev.exit ]
  %arrayidx.i1.i.i = getelementptr inbounds ptr, ptr %11, i64 %retval.0.i.i.i
  %15 = load ptr, ptr %arrayidx.i1.i.i, align 8
  call void @llvm.lifetime.start.p0(i64 24, ptr nonnull %ref.tmp.i)
  store ptr %15, ptr %ref.tmp.i, align 8
  store ptr %entry1, ptr %m_value.i.i, align 8
  store i32 %retval.0.i.i10, ptr %ref.tmp10.sroa.2.0.m_value.i.i.sroa_idx, align 8
  call void @_ZN14core_hashtableIN7obj_mapI9func_declSt4pairIPN6spacer7sym_mux13sym_mux_entryEjEE13obj_map_entryE8obj_hashINS8_8key_dataEE10default_eqISB_EE6insertEOSB_(ptr noundef nonnull align 8 dereferenceable(20) %m_muxes, ptr noundef nonnull align 8 dereferenceable(24) %ref.tmp.i)
  call void @llvm.lifetime.end.p0(i64 24, ptr nonnull %ref.tmp.i)
  br label %while.cond, !llvm.loop !8

lpad:                                             ; preds = %if.then.i.i
  %16 = landingpad { ptr, i32 }
          cleanup
  call void @_ZN7obj_refI9func_decl11ast_managerED2Ev(ptr noundef nonnull align 8 dereferenceable(16) %ref.tmp) #16
  resume { ptr, i32 } %16

while.end:                                        ; preds = %_ZNK15ref_vector_coreI9func_decl19ref_manager_wrapperIS0_11ast_managerEE4sizeEv.exit.thread, %entry
  ret void
}